; Function Attrs: mustprogress ssp uwtable
define void @_ZN6open3d4core3nns8KnnIndexC2ERKNS0_6TensorERKNS0_5DtypeE(ptr noundef nonnull align 8 dereferenceable(360) %0, ptr noundef nonnull align 8 dereferenceable(160) %1, ptr noundef nonnull align 8 dereferenceable(32) %2) unnamed_addr #2 align 2 personality ptr @__gxx_personality_v0 {
  %4 = alloca %"class.std::initializer_list", align 8
  %5 = alloca [1 x i64], align 8
  %6 = alloca %"class.std::initializer_list", align 8
  %7 = alloca [1 x i64], align 8
  tail call void @_ZN6open3d4core3nns8NNSIndexC2Ev(ptr noundef nonnull align 8 dereferenceable(200) %0)
  store ptr getelementptr inbounds nuw inrange(-16, 64) (i8, ptr @_ZTVN6open3d4core3nns8KnnIndexE, i64 16), ptr %0, align 8, !tbaa !24
  %8 = getelementptr inbounds nuw i8, ptr %0, i64 200
  store ptr getelementptr inbounds nuw inrange(-16, 24) (i8, ptr @_ZTVN6open3d4core6TensorE, i64 16), ptr %8, align 8, !tbaa !24
  %9 = getelementptr inbounds nuw i8, ptr %0, i64 208
  call void @llvm.lifetime.start.p0(i64 16, ptr nonnull %4) #30
  call void @llvm.lifetime.start.p0(i64 8, ptr nonnull %5) #30
  store i64 0, ptr %5, align 8, !tbaa !11
  store ptr %5, ptr %4, align 8, !tbaa !13
  %10 = getelementptr inbounds nuw i8, ptr %4, i64 8
  store i64 1, ptr %10, align 8, !tbaa !16
  invoke void @_ZN6open3d4core10SizeVectorC1ERKSt16initializer_listIlE(ptr noundef nonnull align 8 dereferenceable(48) %9, ptr noundef nonnull align 8 dereferenceable(16) %4)
          to label %.noexc unwind label %28

.noexc:                                           ; preds = %3
  call void @llvm.lifetime.end.p0(i64 8, ptr nonnull %5) #30
  call void @llvm.lifetime.end.p0(i64 16, ptr nonnull %4) #30
  %11 = getelementptr inbounds nuw i8, ptr %0, i64 256
  call void @llvm.lifetime.start.p0(i64 16, ptr nonnull %6) #30
  call void @llvm.lifetime.start.p0(i64 8, ptr nonnull %7) #30
  store i64 1, ptr %7, align 8, !tbaa !11
  store ptr %7, ptr %6, align 8, !tbaa !13
  %12 = getelementptr inbounds nuw i8, ptr %6, i64 8
  store i64 1, ptr %12, align 8, !tbaa !16
  invoke void @_ZN6open3d4core10SizeVectorC1ERKSt16initializer_listIlE(ptr noundef nonnull align 8 dereferenceable(48) %11, ptr noundef nonnull align 8 dereferenceable(16) %6)
          to label %19 unwind label %13

13:                                               ; preds = %.noexc
  %14 = landingpad { ptr, i32 }
          cleanup
  call void @llvm.lifetime.end.p0(i64 8, ptr nonnull %7) #30
  call void @llvm.lifetime.end.p0(i64 16, ptr nonnull %6) #30
  %15 = load ptr, ptr %9, align 8, !tbaa !10
  %16 = getelementptr inbounds nuw i8, ptr %0, i64 224
  %17 = icmp eq ptr %15, %16
  br i1 %17, label %.body, label %18

18:                                               ; preds = %13
  call void @free(ptr noundef %15) #30
  br label %.body

19:                                               ; preds = %.noexc
  call void @llvm.lifetime.end.p0(i64 8, ptr nonnull %7) #30
  call void @llvm.lifetime.end.p0(i64 16, ptr nonnull %6) #30
  %20 = getelementptr inbounds nuw i8, ptr %0, i64 304
  store ptr null, ptr %20, align 8, !tbaa !26
  %21 = getelementptr inbounds nuw i8, ptr %0, i64 312
  call void @llvm.memcpy.p0.p0.i64(ptr noundef nonnull align 8 dereferenceable(32) %21, ptr noundef nonnull align 8 dereferenceable(32) @_ZN6open3d4core9UndefinedE, i64 32, i1 false), !tbaa.struct !42
  %22 = getelementptr inbounds nuw i8, ptr %0, i64 344
  call void @llvm.memset.p0.i64(ptr noundef nonnull align 8 dereferenceable(16) %22, i8 0, i64 16, i1 false)
  %23 = load ptr, ptr %0, align 8, !tbaa !24
  %24 = getelementptr inbounds nuw i8, ptr %23, i64 16
  %25 = load ptr, ptr %24, align 8
  %26 = invoke noundef zeroext i1 %25(ptr noundef nonnull align 8 dereferenceable(360) %0, ptr noundef nonnull align 8 dereferenceable(160) %1, ptr noundef nonnull align 8 dereferenceable(32) %2)
          to label %27 unwind label %30

27:                                               ; preds = %19
  ret void

28:                                               ; preds = %3
  %29 = landingpad { ptr, i32 }
          cleanup
  br label %.body

30:                                               ; preds = %19
  %31 = landingpad { ptr, i32 }
          cleanup
  call void @_ZN6open3d4core6TensorD2Ev(ptr noundef nonnull align 8 dereferenceable(160) %8) #30
  br label %.body

.body:                                            ; preds = %28, %18, %13, %30
  %.pn = phi { ptr, i32 } [ %31, %30 ], [ %29, %28 ], [ %14, %18 ], [ %14, %13 ]
  call void @_ZN6open3d4core3nns8NNSIndexD2Ev(ptr noundef nonnull align 8 dereferenceable(200) %0) #30
  resume { ptr, i32 } %.pn
}